target datalayout = "e-m:e-p270:32:32-p271:32:32-p272:64:64-i64:64-i128:128-f80:128-n8:16:32:64-S128"
target triple = "x86_64-pc-linux-gnu"

%struct.__ncnn_allocator_t = type { ptr, ptr, ptr }
%"class.ncnn::Mat" = type { ptr, ptr, i64, i32, ptr, i32, i32, i32, i32, i32, i64 }

; Function Attrs: mustprogress uwtable
define hidden ptr @ncnn_mat_create_external_3d(i32 noundef %0, i32 noundef %1, i32 noundef %2, ptr noundef %3, ptr noundef %4) #1 personality ptr @__gxx_personality_v0 {
  %6 = alloca i64, align 8
  %7 = alloca i32, align 4
  %8 = alloca ptr, align 8
  %9 = alloca i32, align 4
  %10 = alloca i32, align 4
  %11 = alloca i32, align 4
  %12 = alloca ptr, align 8
  %13 = alloca i64, align 8
  %14 = alloca ptr, align 8
  %15 = alloca i32, align 4
  %16 = alloca i32, align 4
  %17 = alloca i32, align 4
  %18 = alloca ptr, align 8
  %19 = alloca ptr, align 8
  %20 = alloca ptr, align 8
  %21 = alloca i32, align 4
  store i32 %0, ptr %15, align 4
  store i32 %1, ptr %16, align 4
  store i32 %2, ptr %17, align 4
  store ptr %3, ptr %18, align 8
  store ptr %4, ptr %19, align 8
  %22 = call noalias noundef nonnull ptr @_Znwm(i64 noundef 72) #13
  %23 = load i32, ptr %15, align 4
  %24 = load i32, ptr %16, align 4
  %25 = load i32, ptr %17, align 4
  %26 = load ptr, ptr %18, align 8
  %27 = load ptr, ptr %19, align 8
  %28 = icmp ne ptr %27, null
  br i1 %28, label %29, label %33

29:                                               ; preds = %5
  %30 = load ptr, ptr %19, align 8
  %31 = getelementptr inbounds nuw %struct.__ncnn_allocator_t, ptr %30, i32 0, i32 0
  %32 = load ptr, ptr %31, align 8
  br label %34

33:                                               ; preds = %5
  br label %34

34:                                               ; preds = %33, %29
  %35 = phi ptr [ %32, %29 ], [ null, %33 ]
  store ptr %22, ptr %8, align 8
  store i32 %23, ptr %9, align 4
  store i32 %24, ptr %10, align 4
  store i32 %25, ptr %11, align 4
  store ptr %26, ptr %12, align 8
  store i64 4, ptr %13, align 8
  store ptr %35, ptr %14, align 8
  %36 = load ptr, ptr %8, align 8
  %37 = load ptr, ptr %12, align 8
  store ptr %37, ptr %36, align 8
  %38 = getelementptr inbounds nuw %"class.ncnn::Mat", ptr %36, i32 0, i32 1
  store ptr null, ptr %38, align 8
  %39 = getelementptr inbounds nuw %"class.ncnn::Mat", ptr %36, i32 0, i32 2
  %40 = load i64, ptr %13, align 8
  store i64 %40, ptr %39, align 8
  %41 = getelementptr inbounds nuw %"class.ncnn::Mat", ptr %36, i32 0, i32 3
  store i32 1, ptr %41, align 8
  %42 = getelementptr inbounds nuw %"class.ncnn::Mat", ptr %36, i32 0, i32 4
  %43 = load ptr, ptr %14, align 8
  store ptr %43, ptr %42, align 8
  %44 = getelementptr inbounds nuw %"class.ncnn::Mat", ptr %36, i32 0, i32 5
  store i32 3, ptr %44, align 8
  %45 = getelementptr inbounds nuw %"class.ncnn::Mat", ptr %36, i32 0, i32 6
  %46 = load i32, ptr %9, align 4
  store i32 %46, ptr %45, align 4
  %47 = getelementptr inbounds nuw %"class.ncnn::Mat", ptr %36, i32 0, i32 7
  %48 = load i32, ptr %10, align 4
  store i32 %48, ptr %47, align 8
  %49 = getelementptr inbounds nuw %"class.ncnn::Mat", ptr %36, i32 0, i32 8
  store i32 1, ptr %49, align 4
  %50 = getelementptr inbounds nuw %"class.ncnn::Mat", ptr %36, i32 0, i32 9
  %51 = load i32, ptr %11, align 4
  store i32 %51, ptr %50, align 8
  %52 = getelementptr inbounds nuw %"class.ncnn::Mat", ptr %36, i32 0, i32 6
  %53 = load i32, ptr %52, align 4
  %54 = sext i32 %53 to i64
  %55 = getelementptr inbounds nuw %"class.ncnn::Mat", ptr %36, i32 0, i32 7
  %56 = load i32, ptr %55, align 8
  %57 = sext i32 %56 to i64
  %58 = mul i64 %54, %57
  %59 = getelementptr inbounds nuw %"class.ncnn::Mat", ptr %36, i32 0, i32 2
  %60 = load i64, ptr %59, align 8
  %61 = mul i64 %58, %60
  store i64 %61, ptr %6, align 8
  store i32 16, ptr %7, align 4
  %62 = load i64, ptr %6, align 8
  %63 = load i32, ptr %7, align 4
  %64 = sext i32 %63 to i64
  %65 = add i64 %62, %64
  %66 = sub i64 %65, 1
  %67 = load i32, ptr %7, align 4
  %68 = sub nsw i32 0, %67
  %69 = sext i32 %68 to i64
  %70 = and i64 %66, %69
  %71 = getelementptr inbounds nuw %"class.ncnn::Mat", ptr %36, i32 0, i32 2
  %72 = load i64, ptr %71, align 8
  %73 = udiv i64 %70, %72
  %74 = getelementptr inbounds nuw %"class.ncnn::Mat", ptr %36, i32 0, i32 10
  store i64 %73, ptr %74, align 8
  br label %75

75:                                               ; preds = %34
  ret ptr %22

76:                                               ; No predecessors!
  %77 = landingpad { ptr, i32 }
          cleanup
  %78 = extractvalue { ptr, i32 } %77, 0
  store ptr %78, ptr %20, align 8
  %79 = extractvalue { ptr, i32 } %77, 1
  store i32 %79, ptr %21, align 4
  call void @_ZdlPvm(ptr noundef %22, i64 noundef 72) #14
  br label %80

80:                                               ; preds = %76
  %81 = load ptr, ptr %20, align 8
  %82 = load i32, ptr %21, align 4
  %83 = insertvalue { ptr, i32 } poison, ptr %81, 0
  %84 = insertvalue { ptr, i32 } %83, i32 %82, 1
  resume { ptr, i32 } %84
}