; Function Attrs: mustprogress uwtable
define hidden noalias noundef nonnull ptr @ncnn_mat_create_external_3d(i32 noundef %0, i32 noundef %1, i32 noundef %2, ptr noundef %3, ptr noundef readonly %4) local_unnamed_addr #1 personality ptr @__gxx_personality_v0 {
  %6 = tail call noalias noundef nonnull dereferenceable(72) ptr @_Znwm(i64 noundef 72) #24
  %.not = icmp eq ptr %4, null
  br i1 %.not, label %9, label %7

7:                                                ; preds = %5
  %8 = load ptr, ptr %4, align 8
  br label %9

9:                                                ; preds = %5, %7
  %10 = phi ptr [ %8, %7 ], [ null, %5 ]
  store ptr %3, ptr %6, align 8
  %11 = getelementptr inbounds nuw i8, ptr %6, i64 8
  store ptr null, ptr %11, align 8
  %12 = getelementptr inbounds nuw i8, ptr %6, i64 16
  store i64 4, ptr %12, align 8
  %13 = getelementptr inbounds nuw i8, ptr %6, i64 24
  store i32 1, ptr %13, align 8
  %14 = getelementptr inbounds nuw i8, ptr %6, i64 32
  store ptr %10, ptr %14, align 8
  %15 = getelementptr inbounds nuw i8, ptr %6, i64 40
  store i32 3, ptr %15, align 8
  %16 = getelementptr inbounds nuw i8, ptr %6, i64 44
  store i32 %0, ptr %16, align 4
  %17 = getelementptr inbounds nuw i8, ptr %6, i64 48
  store i32 %1, ptr %17, align 8
  %18 = getelementptr inbounds nuw i8, ptr %6, i64 52
  store i32 1, ptr %18, align 4
  %19 = getelementptr inbounds nuw i8, ptr %6, i64 56
  store i32 %2, ptr %19, align 8
  %20 = sext i32 %0 to i64
  %21 = sext i32 %1 to i64
  %22 = mul nsw i64 %21, %20
  %23 = add nsw i64 %22, 3
  %24 = and i64 %23, 4611686018427387900
  %25 = getelementptr inbounds nuw i8, ptr %6, i64 64
  store i64 %24, ptr %25, align 8
  ret ptr %6
}